Certificate:
    Data:
        Version: 1 (0x0)
        Serial Number: 4660 (0x1234)
        Signature Algorithm: sha256WithRSAEncryption
        Issuer: C=DE, ST=Saxony, L=Leipzig, O=Contoso, OU=Contoso BU, CN=demo-ca.lan/emailAddress=ca-admin@contoso.com
        Validity
            Not Before: Sep 17 09:12:37 2020 GMT
            Not After : Sep 17 09:12:37 2021 GMT
        Subject: C=FR, ST=Paris, L=Paris, O=Contoso, OU=Contoso BU, CN=test-idrac.local.lan/emailAddress=webmaster@contoso.com
        Subject Public Key Info:
            Public Key Algorithm: rsaEncryption
                RSA Public-Key: (2048 bit)
                Modulus:
                    00:c6:d0:15:91:32:04:55:9f:b8:e1:6a:6e:d3:f0:
                    ca:60:41:d3:12:8d:df:4d:23:5c:cd:6e:b5:11:d7:
                    64:da:58:88:80:84:de:f6:c6:5b:e3:ff:d6:3d:e2:
                    4f:85:6b:dd:c6:cf:fe:4b:07:ad:b4:3f:d4:72:26:
                    7b:91:d3:18:17:74:7e:3b:3b:8c:9b:3c:a3:b2:b7:
                    a3:8b:3a:1c:d8:71:02:50:5d:9f:fd:e9:1d:97:bc:
                    d8:b2:97:8a:23:7c:5a:47:52:b1:c7:a5:3f:ad:13:
                    62:a7:39:a0:34:0d:be:95:4d:a7:01:2d:64:fe:25:
                    9b:cf:9f:e1:5a:02:28:bc:c5:2f:09:08:5d:7b:31:
                    4c:50:3e:0d:b5:c7:9d:31:be:73:be:2a:4e:5e:64:
                    f1:4e:f4:6a:19:e2:b4:45:f4:bc:7b:3c:0a:34:ad:
                    6e:b2:c9:31:54:61:f5:a7:91:74:e7:20:6f:eb:b2:
                    7a:5f:9c:99:1c:9f:0e:47:a7:a3:ff:80:ee:ce:1d:
                    cd:29:9b:71:bf:11:c9:49:55:d2:1b:42:1b:ee:43:
                    e7:e3:71:7a:73:d2:a4:bc:30:df:4f:60:ef:df:66:
                    f6:01:b2:05:23:05:fb:0e:97:e0:2c:8a:ae:9f:d1:
                    35:da:dd:8e:57:50:a2:ef:07:e7:df:b6:f1:e6:17:
                    fa:2f
                Exponent: 65537 (0x10001)
    Signature Algorithm: sha256WithRSAEncryption
         4f:07:34:63:fd:f4:a2:04:6c:5c:01:f6:c4:88:46:27:05:89:
         6e:f4:7f:e0:e5:00:7c:25:55:11:bc:13:a9:19:f7:77:3f:48:
         ff:83:aa:7d:e3:9f:40:8c:9e:94:df:f5:87:8a:a1:93:51:b9:
         a5:8d:9d:18:cb:1b:8a:f3:44:1c:b8:2c:83:c9:4c:c5:05:f4:
         9a:fe:9f:ec:af:a0:25:53:c3:9b:da:64:64:6d:37:e7:36:01:
         04:ad:52:b7:ef:e6:01:0d:21:8b:c1:ae:42:26:d5:26:d4:d2:
         67:b1:21:ca:2a:33:eb:b5:46:d2:62:4a:dd:86:c2:8c:2c:ce:
         44:a8:62:45:21:89:ac:45:70:c5:2e:65:cb:68:ec:86:60:53:
         8e:98:94:75:cf:2c:82:30:15:3c:40:61:ba:4b:17:4b:a3:4c:
         2c:3f:8a:0c:58:69:dc:16:e0:59:12:32:d1:d6:13:88:a3:78:
         41:f8:ea:8d:8a:1d:f2:ad:76:53:30:2a:07:26:f4:d4:36:00:
         a2:31:53:d7:e3:38:7d:51:0e:71:a9:de:ae:d1:71:99:bd:b8:
         c5:e2:6a:94:e8:56:55:93:d3:8e:0b:1a:5d:0e:f5:30:a1:05:
         f0:52:0e:d5:88:05:a2:d8:ea:b2:68:0b:9d:eb:6d:d5:27:ba:
         5f:9a:9d:4f
-----BEGIN CERTIFICATE-----
MIIDojCCAooCAhI0MA0GCSqGSIb3DQEBCwUAMIGSMQswCQYDVQQGEwJERTEPMA0G
A1UECAwGU2F4b255MRAwDgYDVQQHDAdMZWlwemlnMRAwDgYDVQQKDAdDb250b3Nv
MRMwEQYDVQQLDApDb250b3NvIEJVMRQwEgYDVQQDDAtkZW1vLWNhLmxhbjEjMCEG
CSqGSIb3DQEJARYUY2EtYWRtaW5AY29udG9zby5jb20wHhcNMjAwOTE3MDkxMjM3
WhcNMjEwOTE3MDkxMjM3WjCBmTELMAkGA1UEBhMCRlIxDjAMBgNVBAgMBVBhcmlz
MQ4wDAYDVQQHDAVQYXJpczEQMA4GA1UECgwHQ29udG9zbzETMBEGA1UECwwKQ29u
dG9zbyBCVTEdMBsGA1UEAwwUdGVzdC1pZHJhYy5sb2NhbC5sYW4xJDAiBgkqhkiG
9w0BCQEWFXdlYm1hc3RlckBjb250b3NvLmNvbTCCASIwDQYJKoZIhvcNAQEBBQAD
ggEPADCCAQoCggEBAMbQFZEyBFWfuOFqbtPwymBB0xKN300jXM1utRHXZNpYiICE
3vbGW+P/1j3iT4Vr3cbP/ksHrbQ/1HIme5HTGBd0fjs7jJs8o7K3o4s6HNhxAlBd
n/3pHZe82LKXiiN8WkdSscelP60TYqc5oDQNvpVNpwEtZP4lm8+f4VoCKLzFLwkI
XXsxTFA+DbXHnTG+c74qTl5k8U70ahnitEX0vHs8CjStbrLJMVRh9aeRdOcgb+uy
el+cmRyfDkeno/+A7s4dzSmbcb8RyUlV0htCG+5D5+NxenPSpLww309g799m9gGy
BSMF+w6X4CyKrp/RNdrdjldQou8H59+28eYX+i8CAwEAATANBgkqhkiG9w0BAQsF
AAOCAQEATwc0Y/30ogRsXAH2xIhGJwWJbvR/4OUAfCVVEbwTqRn3dz9I/4OqfeOf
QIyelN/1h4qhk1G5pY2dGMsbivNEHLgsg8lMxQX0mv6f7K+gJVPDm9pkZG035zYB
BK1St+/mAQ0hi8GuQibVJtTSZ7Ehyioz67VG0mJK3YbCjCzORKhiRSGJrEVwxS5l
y2jshmBTjpiUdc8sgjAVPEBhuksXS6NMLD+KDFhp3BbgWRIy0dYTiKN4QfjqjYod
8q12UzAqByb01DYAojFT1+M4fVEOcanertFxmb24xeJqlOhWVZPTjgsaXQ71MKEF
8FIO1YgFotjqsmgLnett1Se6X5qdTw==
-----END CERTIFICATE-----
